target datalayout = "e-m:e-p270:32:32-p271:32:32-p272:64:64-i64:64-i128:128-f80:128-n8:16:32:64-S128"
target triple = "x86_64-pc-linux-gnu"

%"struct.faiss::IndexRefine" = type { %"struct.faiss::Index.base", ptr, ptr, i8, i8, float }
%"struct.faiss::Index.base" = type <{ ptr, i32, [4 x i8], i64, i8, i8, [2 x i8], i32, float }>
%"struct.faiss::Index" = type <{ ptr, i32, [4 x i8], i64, i8, i8, [2 x i8], i32, float, [4 x i8] }>
%"class.std::__cxx11::basic_string" = type { %"struct.std::__cxx11::basic_string<char>::_Alloc_hider", i64, %union.anon }
%"struct.std::__cxx11::basic_string<char>::_Alloc_hider" = type { ptr }
%union.anon = type { i64, [8 x i8] }

@.str = private unnamed_addr constant [19 x i8] c"Error: '%s' failed\00", align 1
@.str.1 = private unnamed_addr constant [33 x i8] c"base_index->d == refine_index->d\00", align 1
@__PRETTY_FUNCTION__._ZN5faiss11IndexRefineC2EPNS_5IndexES2_ = private unnamed_addr constant [50 x i8] c"faiss::IndexRefine::IndexRefine(Index *, Index *)\00", align 1
@.str.2 = private unnamed_addr constant [111 x i8] c"generated/home/dtcxzyw/WorkSpace/Projects/compilers/llvm-opt-benchmark/bench/faiss/faiss/faiss/IndexRefine.cpp\00", align 1
@_ZTIN5faiss14FaissExceptionE = external constant ptr
@.str.3 = private unnamed_addr constant [53 x i8] c"base_index->metric_type == refine_index->metric_type\00", align 1
@.str.4 = private unnamed_addr constant [43 x i8] c"base_index->ntotal == refine_index->ntotal\00", align 1
@_ZTVN5faiss5IndexE = external unnamed_addr constant { [24 x ptr] }, align 8

; Function Attrs: mustprogress nounwind uwtable
define linkonce_odr void @_ZN5faiss5IndexC2ElNS_10MetricTypeE(ptr noundef nonnull align 8 dereferenceable(36) %0, i64 noundef %1, i32 noundef %2) unnamed_addr #0 comdat align 2 {
  %4 = alloca ptr, align 8
  %5 = alloca i64, align 8
  %6 = alloca i32, align 4
  store ptr %0, ptr %4, align 8
  store i64 %1, ptr %5, align 8
  store i32 %2, ptr %6, align 4
  %7 = load ptr, ptr %4, align 8
  store ptr getelementptr inbounds ({ [24 x ptr] }, ptr @_ZTVN5faiss5IndexE, i32 0, i32 0, i32 2), ptr %7, align 8
  %8 = getelementptr inbounds %"struct.faiss::Index", ptr %7, i32 0, i32 1
  %9 = load i64, ptr %5, align 8
  %10 = trunc i64 %9 to i32
  store i32 %10, ptr %8, align 8
  %11 = getelementptr inbounds %"struct.faiss::Index", ptr %7, i32 0, i32 3
  store i64 0, ptr %11, align 8
  %12 = getelementptr inbounds %"struct.faiss::Index", ptr %7, i32 0, i32 4
  store i8 0, ptr %12, align 8
  %13 = getelementptr inbounds %"struct.faiss::Index", ptr %7, i32 0, i32 5
  store i8 1, ptr %13, align 1
  %14 = getelementptr inbounds %"struct.faiss::Index", ptr %7, i32 0, i32 7
  %15 = load i32, ptr %6, align 4
  store i32 %15, ptr %14, align 4
  %16 = getelementptr inbounds %"struct.faiss::Index", ptr %7, i32 0, i32 8
  store float 0.000000e+00, ptr %16, align 8
  ret void
}

; Function Attrs: mustprogress uwtable
define void @_ZN5faiss11IndexRefineC2EPNS_5IndexES2_(ptr noundef nonnull align 8 dereferenceable(64) %0, ptr noundef %1, ptr noundef %2) unnamed_addr #1 align 2 personality ptr @__gxx_personality_v0 {
  %4 = alloca ptr, align 8
  %5 = alloca ptr, align 8
  %6 = alloca ptr, align 8
  %7 = alloca %"class.std::__cxx11::basic_string", align 8
  %8 = alloca i32, align 4
  %9 = alloca ptr, align 8
  %10 = alloca i32, align 4
  %11 = alloca %"class.std::__cxx11::basic_string", align 8
  %12 = alloca i32, align 4
  %13 = alloca %"class.std::__cxx11::basic_string", align 8
  %14 = alloca i32, align 4
  store ptr %0, ptr %4, align 8
  store ptr %1, ptr %5, align 8
  store ptr %2, ptr %6, align 8
  %15 = load ptr, ptr %4, align 8
  %16 = load ptr, ptr %5, align 8
  %17 = getelementptr inbounds %"struct.faiss::Index", ptr %16, i32 0, i32 1
  %18 = load i32, ptr %17, align 8
  %19 = sext i32 %18 to i64
  %20 = load ptr, ptr %5, align 8
  %21 = getelementptr inbounds %"struct.faiss::Index", ptr %20, i32 0, i32 7
  %22 = load i32, ptr %21, align 4
  call void @_ZN5faiss5IndexC2ElNS_10MetricTypeE(ptr noundef nonnull align 8 dereferenceable(36) %15, i64 noundef %19, i32 noundef %22)
  store ptr getelementptr inbounds ({ [24 x ptr] }, ptr @_ZTVN5faiss11IndexRefineE, i32 0, i32 0, i32 2), ptr %15, align 8
  %23 = getelementptr inbounds %"struct.faiss::IndexRefine", ptr %15, i32 0, i32 1
  %24 = load ptr, ptr %5, align 8
  store ptr %24, ptr %23, align 8
  %25 = getelementptr inbounds %"struct.faiss::IndexRefine", ptr %15, i32 0, i32 2
  %26 = load ptr, ptr %6, align 8
  store ptr %26, ptr %25, align 8
  %27 = getelementptr inbounds %"struct.faiss::IndexRefine", ptr %15, i32 0, i32 5
  store float 1.000000e+00, ptr %27, align 4
  %28 = getelementptr inbounds %"struct.faiss::IndexRefine", ptr %15, i32 0, i32 4
  store i8 0, ptr %28, align 1
  %29 = getelementptr inbounds %"struct.faiss::IndexRefine", ptr %15, i32 0, i32 3
  store i8 0, ptr %29, align 8
  %30 = load ptr, ptr %6, align 8
  %31 = icmp ne ptr %30, null
  br i1 %31, label %32, label %151

32:                                               ; preds = %3
  br label %33

33:                                               ; preds = %32
  %34 = load ptr, ptr %5, align 8
  %35 = getelementptr inbounds %"struct.faiss::Index", ptr %34, i32 0, i32 1
  %36 = load i32, ptr %35, align 8
  %37 = load ptr, ptr %6, align 8
  %38 = getelementptr inbounds %"struct.faiss::Index", ptr %37, i32 0, i32 1
  %39 = load i32, ptr %38, align 8
  %40 = icmp eq i32 %36, %39
  br i1 %40, label %65, label %41

41:                                               ; preds = %33
  br label %42

42:                                               ; preds = %41
  call void @_ZNSt7__cxx1112basic_stringIcSt11char_traitsIcESaIcEEC1Ev(ptr noundef nonnull align 8 dereferenceable(32) %7) #9
  %43 = call i32 (ptr, i64, ptr, ...) @snprintf(ptr noundef null, i64 noundef 0, ptr noundef @.str, ptr noundef @.str.1) #9
  store i32 %43, ptr %8, align 4
  %44 = load i32, ptr %8, align 4
  %45 = add nsw i32 %44, 1
  %46 = sext i32 %45 to i64
  invoke void @_ZNSt7__cxx1112basic_stringIcSt11char_traitsIcESaIcEE6resizeEm(ptr noundef nonnull align 8 dereferenceable(32) %7, i64 noundef %46)
          to label %47 unwind label %54

47:                                               ; preds = %42
  %48 = invoke noundef nonnull align 1 dereferenceable(1) ptr @_ZNSt7__cxx1112basic_stringIcSt11char_traitsIcESaIcEEixEm(ptr noundef nonnull align 8 dereferenceable(32) %7, i64 noundef 0)
          to label %49 unwind label %54

49:                                               ; preds = %47
  %50 = call noundef i64 @_ZNKSt7__cxx1112basic_stringIcSt11char_traitsIcESaIcEE4sizeEv(ptr noundef nonnull align 8 dereferenceable(32) %7) #9
  %51 = call i32 (ptr, i64, ptr, ...) @snprintf(ptr noundef %48, i64 noundef %50, ptr noundef @.str, ptr noundef @.str.1) #9
  %52 = call ptr @__cxa_allocate_exception(i64 40) #9
  invoke void @_ZN5faiss14FaissExceptionC1ERKNSt7__cxx1112basic_stringIcSt11char_traitsIcESaIcEEEPKcSA_i(ptr noundef nonnull align 8 dereferenceable(40) %52, ptr noundef nonnull align 8 dereferenceable(32) %7, ptr noundef @__PRETTY_FUNCTION__._ZN5faiss11IndexRefineC2EPNS_5IndexES2_, ptr noundef @.str.2, i32 noundef 29)
          to label %53 unwind label %58

53:                                               ; preds = %49
  invoke void @__cxa_throw(ptr %52, ptr @_ZTIN5faiss14FaissExceptionE, ptr @_ZN5faiss14FaissExceptionD2Ev) #16
          to label %162 unwind label %54

54:                                               ; preds = %53, %47, %42
  %55 = landingpad { ptr, i32 }
          cleanup
  %56 = extractvalue { ptr, i32 } %55, 0
  store ptr %56, ptr %9, align 8
  %57 = extractvalue { ptr, i32 } %55, 1
  store i32 %57, ptr %10, align 4
  br label %62

58:                                               ; preds = %49
  %59 = landingpad { ptr, i32 }
          cleanup
  %60 = extractvalue { ptr, i32 } %59, 0
  store ptr %60, ptr %9, align 8
  %61 = extractvalue { ptr, i32 } %59, 1
  store i32 %61, ptr %10, align 4
  call void @__cxa_free_exception(ptr %52) #9
  br label %62

62:                                               ; preds = %58, %54
  call void @_ZNSt7__cxx1112basic_stringIcSt11char_traitsIcESaIcEED1Ev(ptr noundef nonnull align 8 dereferenceable(32) %7) #9
  br label %156

63:                                               ; No predecessors!
  br label %64

64:                                               ; preds = %63
  br label %65

65:                                               ; preds = %64, %33
  br label %66

66:                                               ; preds = %65
  br label %67

67:                                               ; preds = %66
  br label %68

68:                                               ; preds = %67
  %69 = load ptr, ptr %5, align 8
  %70 = getelementptr inbounds %"struct.faiss::Index", ptr %69, i32 0, i32 7
  %71 = load i32, ptr %70, align 4
  %72 = load ptr, ptr %6, align 8
  %73 = getelementptr inbounds %"struct.faiss::Index", ptr %72, i32 0, i32 7
  %74 = load i32, ptr %73, align 4
  %75 = icmp eq i32 %71, %74
  br i1 %75, label %100, label %76

76:                                               ; preds = %68
  br label %77

77:                                               ; preds = %76
  call void @_ZNSt7__cxx1112basic_stringIcSt11char_traitsIcESaIcEEC1Ev(ptr noundef nonnull align 8 dereferenceable(32) %11) #9
  %78 = call i32 (ptr, i64, ptr, ...) @snprintf(ptr noundef null, i64 noundef 0, ptr noundef @.str, ptr noundef @.str.3) #9
  store i32 %78, ptr %12, align 4
  %79 = load i32, ptr %12, align 4
  %80 = add nsw i32 %79, 1
  %81 = sext i32 %80 to i64
  invoke void @_ZNSt7__cxx1112basic_stringIcSt11char_traitsIcESaIcEE6resizeEm(ptr noundef nonnull align 8 dereferenceable(32) %11, i64 noundef %81)
          to label %82 unwind label %89

82:                                               ; preds = %77
  %83 = invoke noundef nonnull align 1 dereferenceable(1) ptr @_ZNSt7__cxx1112basic_stringIcSt11char_traitsIcESaIcEEixEm(ptr noundef nonnull align 8 dereferenceable(32) %11, i64 noundef 0)
          to label %84 unwind label %89

84:                                               ; preds = %82
  %85 = call noundef i64 @_ZNKSt7__cxx1112basic_stringIcSt11char_traitsIcESaIcEE4sizeEv(ptr noundef nonnull align 8 dereferenceable(32) %11) #9
  %86 = call i32 (ptr, i64, ptr, ...) @snprintf(ptr noundef %83, i64 noundef %85, ptr noundef @.str, ptr noundef @.str.3) #9
  %87 = call ptr @__cxa_allocate_exception(i64 40) #9
  invoke void @_ZN5faiss14FaissExceptionC1ERKNSt7__cxx1112basic_stringIcSt11char_traitsIcESaIcEEEPKcSA_i(ptr noundef nonnull align 8 dereferenceable(40) %87, ptr noundef nonnull align 8 dereferenceable(32) %11, ptr noundef @__PRETTY_FUNCTION__._ZN5faiss11IndexRefineC2EPNS_5IndexES2_, ptr noundef @.str.2, i32 noundef 31)
          to label %88 unwind label %93

88:                                               ; preds = %84
  invoke void @__cxa_throw(ptr %87, ptr @_ZTIN5faiss14FaissExceptionE, ptr @_ZN5faiss14FaissExceptionD2Ev) #16
          to label %162 unwind label %89

89:                                               ; preds = %88, %82, %77
  %90 = landingpad { ptr, i32 }
          cleanup
  %91 = extractvalue { ptr, i32 } %90, 0
  store ptr %91, ptr %9, align 8
  %92 = extractvalue { ptr, i32 } %90, 1
  store i32 %92, ptr %10, align 4
  br label %97

93:                                               ; preds = %84
  %94 = landingpad { ptr, i32 }
          cleanup
  %95 = extractvalue { ptr, i32 } %94, 0
  store ptr %95, ptr %9, align 8
  %96 = extractvalue { ptr, i32 } %94, 1
  store i32 %96, ptr %10, align 4
  call void @__cxa_free_exception(ptr %87) #9
  br label %97

97:                                               ; preds = %93, %89
  call void @_ZNSt7__cxx1112basic_stringIcSt11char_traitsIcESaIcEED1Ev(ptr noundef nonnull align 8 dereferenceable(32) %11) #9
  br label %156

98:                                               ; No predecessors!
  br label %99

99:                                               ; preds = %98
  br label %100

100:                                              ; preds = %99, %68
  br label %101

101:                                              ; preds = %100
  br label %102

102:                                              ; preds = %101
  %103 = load ptr, ptr %5, align 8
  %104 = getelementptr inbounds %"struct.faiss::Index", ptr %103, i32 0, i32 5
  %105 = load i8, ptr %104, align 1
  %106 = trunc i8 %105 to i1
  br i1 %106, label %107, label %112

107:                                              ; preds = %102
  %108 = load ptr, ptr %6, align 8
  %109 = getelementptr inbounds %"struct.faiss::Index", ptr %108, i32 0, i32 5
  %110 = load i8, ptr %109, align 1
  %111 = trunc i8 %110 to i1
  br label %112

112:                                              ; preds = %107, %102
  %113 = phi i1 [ false, %102 ], [ %111, %107 ]
  %114 = getelementptr inbounds %"struct.faiss::Index", ptr %15, i32 0, i32 5
  %115 = zext i1 %113 to i8
  store i8 %115, ptr %114, align 1
  br label %116

116:                                              ; preds = %112
  %117 = load ptr, ptr %5, align 8
  %118 = getelementptr inbounds %"struct.faiss::Index", ptr %117, i32 0, i32 3
  %119 = load i64, ptr %118, align 8
  %120 = load ptr, ptr %6, align 8
  %121 = getelementptr inbounds %"struct.faiss::Index", ptr %120, i32 0, i32 3
  %122 = load i64, ptr %121, align 8
  %123 = icmp eq i64 %119, %122
  br i1 %123, label %148, label %124

124:                                              ; preds = %116
  br label %125

125:                                              ; preds = %124
  call void @_ZNSt7__cxx1112basic_stringIcSt11char_traitsIcESaIcEEC1Ev(ptr noundef nonnull align 8 dereferenceable(32) %13) #9
  %126 = call i32 (ptr, i64, ptr, ...) @snprintf(ptr noundef null, i64 noundef 0, ptr noundef @.str, ptr noundef @.str.4) #9
  store i32 %126, ptr %14, align 4
  %127 = load i32, ptr %14, align 4
  %128 = add nsw i32 %127, 1
  %129 = sext i32 %128 to i64
  invoke void @_ZNSt7__cxx1112basic_stringIcSt11char_traitsIcESaIcEE6resizeEm(ptr noundef nonnull align 8 dereferenceable(32) %13, i64 noundef %129)
          to label %130 unwind label %137

130:                                              ; preds = %125
  %131 = invoke noundef nonnull align 1 dereferenceable(1) ptr @_ZNSt7__cxx1112basic_stringIcSt11char_traitsIcESaIcEEixEm(ptr noundef nonnull align 8 dereferenceable(32) %13, i64 noundef 0)
          to label %132 unwind label %137

132:                                              ; preds = %130
  %133 = call noundef i64 @_ZNKSt7__cxx1112basic_stringIcSt11char_traitsIcESaIcEE4sizeEv(ptr noundef nonnull align 8 dereferenceable(32) %13) #9
  %134 = call i32 (ptr, i64, ptr, ...) @snprintf(ptr noundef %131, i64 noundef %133, ptr noundef @.str, ptr noundef @.str.4) #9
  %135 = call ptr @__cxa_allocate_exception(i64 40) #9
  invoke void @_ZN5faiss14FaissExceptionC1ERKNSt7__cxx1112basic_stringIcSt11char_traitsIcESaIcEEEPKcSA_i(ptr noundef nonnull align 8 dereferenceable(40) %135, ptr noundef nonnull align 8 dereferenceable(32) %13, ptr noundef @__PRETTY_FUNCTION__._ZN5faiss11IndexRefineC2EPNS_5IndexES2_, ptr noundef @.str.2, i32 noundef 33)
          to label %136 unwind label %141

136:                                              ; preds = %132
  invoke void @__cxa_throw(ptr %135, ptr @_ZTIN5faiss14FaissExceptionE, ptr @_ZN5faiss14FaissExceptionD2Ev) #16
          to label %162 unwind label %137

137:                                              ; preds = %136, %130, %125
  %138 = landingpad { ptr, i32 }
          cleanup
  %139 = extractvalue { ptr, i32 } %138, 0
  store ptr %139, ptr %9, align 8
  %140 = extractvalue { ptr, i32 } %138, 1
  store i32 %140, ptr %10, align 4
  br label %145

141:                                              ; preds = %132
  %142 = landingpad { ptr, i32 }
          cleanup
  %143 = extractvalue { ptr, i32 } %142, 0
  store ptr %143, ptr %9, align 8
  %144 = extractvalue { ptr, i32 } %142, 1
  store i32 %144, ptr %10, align 4
  call void @__cxa_free_exception(ptr %135) #9
  br label %145

145:                                              ; preds = %141, %137
  call void @_ZNSt7__cxx1112basic_stringIcSt11char_traitsIcESaIcEED1Ev(ptr noundef nonnull align 8 dereferenceable(32) %13) #9
  br label %156

146:                                              ; No predecessors!
  br label %147

147:                                              ; preds = %146
  br label %148

148:                                              ; preds = %147, %116
  br label %149

149:                                              ; preds = %148
  br label %150

150:                                              ; preds = %149
  br label %151

151:                                              ; preds = %150, %3
  %152 = load ptr, ptr %5, align 8
  %153 = getelementptr inbounds %"struct.faiss::Index", ptr %152, i32 0, i32 3
  %154 = load i64, ptr %153, align 8
  %155 = getelementptr inbounds %"struct.faiss::Index", ptr %15, i32 0, i32 3
  store i64 %154, ptr %155, align 8
  ret void

156:                                              ; preds = %145, %97, %62
  call void @_ZN5faiss5IndexD2Ev(ptr noundef nonnull align 8 dereferenceable(36) %15) #9
  br label %157

157:                                              ; preds = %156
  %158 = load ptr, ptr %9, align 8
  %159 = load i32, ptr %10, align 4
  %160 = insertvalue { ptr, i32 } poison, ptr %158, 0
  %161 = insertvalue { ptr, i32 } %160, i32 %159, 1
  resume { ptr, i32 } %161

162:                                              ; preds = %136, %88, %53
  unreachable
}

; Function Attrs: mustprogress uwtable
define void @_ZN5faiss15IndexRefineFlatC2EPNS_5IndexEPKf(ptr noundef nonnull align 8 dereferenceable(64) %0, ptr noundef %1, ptr noundef %2) unnamed_addr #1 align 2 personality ptr @__gxx_personality_v0 {
  %4 = alloca ptr, align 8
  %5 = alloca ptr, align 8
  %6 = alloca ptr, align 8
  %7 = alloca ptr, align 8
  %8 = alloca i32, align 4
  store ptr %0, ptr %4, align 8
  store ptr %1, ptr %5, align 8
  store ptr %2, ptr %6, align 8
  %9 = load ptr, ptr %4, align 8
  %10 = load ptr, ptr %5, align 8
  call void @_ZN5faiss11IndexRefineC2EPNS_5IndexES2_(ptr noundef nonnull align 8 dereferenceable(64) %9, ptr noundef %10, ptr noundef null)
  store ptr getelementptr inbounds ({ [24 x ptr] }, ptr @_ZTVN5faiss15IndexRefineFlatE, i32 0, i32 0, i32 2), ptr %9, align 8
  %11 = load ptr, ptr %5, align 8
  %12 = getelementptr inbounds %"struct.faiss::Index", ptr %11, i32 0, i32 5
  %13 = load i8, ptr %12, align 1
  %14 = trunc i8 %13 to i1
  %15 = getelementptr inbounds %"struct.faiss::Index", ptr %9, i32 0, i32 5
  %16 = zext i1 %14 to i8
  store i8 %16, ptr %15, align 1
  %17 = invoke noalias noundef nonnull ptr @_Znwm(i64 noundef 72) #17
          to label %18 unwind label %39

18:                                               ; preds = %3
  %19 = load ptr, ptr %5, align 8
  %20 = getelementptr inbounds %"struct.faiss::Index", ptr %19, i32 0, i32 1
  %21 = load i32, ptr %20, align 8
  %22 = sext i32 %21 to i64
  %23 = load ptr, ptr %5, align 8
  %24 = getelementptr inbounds %"struct.faiss::Index", ptr %23, i32 0, i32 7
  %25 = load i32, ptr %24, align 4
  invoke void @_ZN5faiss9IndexFlatC1ElNS_10MetricTypeE(ptr noundef nonnull align 8 dereferenceable(72) %17, i64 noundef %22, i32 noundef %25)
          to label %26 unwind label %43

26:                                               ; preds = %18
  %27 = getelementptr inbounds %"struct.faiss::IndexRefine", ptr %9, i32 0, i32 2
  store ptr %17, ptr %27, align 8
  %28 = getelementptr inbounds %"struct.faiss::IndexRefine", ptr %9, i32 0, i32 4
  store i8 1, ptr %28, align 1
  %29 = getelementptr inbounds %"struct.faiss::IndexRefine", ptr %9, i32 0, i32 2
  %30 = load ptr, ptr %29, align 8
  %31 = load ptr, ptr %5, align 8
  %32 = getelementptr inbounds %"struct.faiss::Index", ptr %31, i32 0, i32 3
  %33 = load i64, ptr %32, align 8
  %34 = load ptr, ptr %6, align 8
  %35 = load ptr, ptr %30, align 8
  %36 = getelementptr inbounds ptr, ptr %35, i64 3
  %37 = load ptr, ptr %36, align 8
  invoke void %37(ptr noundef nonnull align 8 dereferenceable(36) %30, i64 noundef %33, ptr noundef %34)
          to label %38 unwind label %39

38:                                               ; preds = %26
  ret void

39:                                               ; preds = %26, %3
  %40 = landingpad { ptr, i32 }
          cleanup
  %41 = extractvalue { ptr, i32 } %40, 0
  store ptr %41, ptr %7, align 8
  %42 = extractvalue { ptr, i32 } %40, 1
  store i32 %42, ptr %8, align 4
  br label %47

43:                                               ; preds = %18
  %44 = landingpad { ptr, i32 }
          cleanup
  %45 = extractvalue { ptr, i32 } %44, 0
  store ptr %45, ptr %7, align 8
  %46 = extractvalue { ptr, i32 } %44, 1
  store i32 %46, ptr %8, align 4
  call void @_ZdlPv(ptr noundef %17) #15
  br label %47

47:                                               ; preds = %43, %39
  call void @_ZN5faiss11IndexRefineD2Ev(ptr noundef nonnull align 8 dereferenceable(64) %9) #9
  br label %48

48:                                               ; preds = %47
  %49 = load ptr, ptr %7, align 8
  %50 = load i32, ptr %8, align 4
  %51 = insertvalue { ptr, i32 } poison, ptr %49, 0
  %52 = insertvalue { ptr, i32 } %51, i32 %50, 1
  resume { ptr, i32 } %52
}