; Function Attrs: mustprogress uwtable
define void @_ZN5faiss15IndexRefineFlatC2EPNS_5IndexEPKf(ptr noundef nonnull align 8 dereferenceable(64) %0, ptr noundef %1, ptr noundef %2) unnamed_addr #1 align 2 personality ptr @__gxx_personality_v0 {
  %4 = getelementptr inbounds i8, ptr %1, i64 8
  %5 = load i32, ptr %4, align 8
  %6 = getelementptr inbounds i8, ptr %1, i64 28
  %7 = load i32, ptr %6, align 4
  %8 = getelementptr inbounds i8, ptr %0, i64 8
  store i32 %5, ptr %8, align 8
  %9 = getelementptr inbounds i8, ptr %0, i64 16
  store i64 0, ptr %9, align 8
  %10 = getelementptr inbounds i8, ptr %0, i64 24
  store i8 0, ptr %10, align 8
  %11 = getelementptr inbounds i8, ptr %0, i64 25
  store i8 1, ptr %11, align 1
  %12 = getelementptr inbounds i8, ptr %0, i64 28
  store i32 %7, ptr %12, align 4
  %13 = getelementptr inbounds i8, ptr %0, i64 32
  store float 0.000000e+00, ptr %13, align 8
  store ptr getelementptr inbounds ({ [24 x ptr] }, ptr @_ZTVN5faiss11IndexRefineE, i64 0, i32 0, i64 2), ptr %0, align 8
  %14 = getelementptr inbounds i8, ptr %0, i64 40
  store ptr %1, ptr %14, align 8
  %15 = getelementptr inbounds i8, ptr %0, i64 48
  store ptr null, ptr %15, align 8
  %16 = getelementptr inbounds i8, ptr %0, i64 60
  store float 1.000000e+00, ptr %16, align 4
  %17 = getelementptr inbounds i8, ptr %0, i64 57
  store i8 0, ptr %17, align 1
  %18 = getelementptr inbounds i8, ptr %0, i64 56
  store i8 0, ptr %18, align 8
  %.phi.trans.insert.i = getelementptr inbounds i8, ptr %1, i64 16
  %.pre.i = load i64, ptr %.phi.trans.insert.i, align 8
  store i64 %.pre.i, ptr %9, align 8
  store ptr getelementptr inbounds ({ [24 x ptr] }, ptr @_ZTVN5faiss15IndexRefineFlatE, i64 0, i32 0, i64 2), ptr %0, align 8
  %19 = getelementptr inbounds i8, ptr %1, i64 25
  %20 = load i8, ptr %19, align 1
  %21 = and i8 %20, 1
  store i8 %21, ptr %11, align 1
  %22 = invoke noalias noundef nonnull dereferenceable(72) ptr @_Znwm(i64 noundef 72) #21
          to label %23 unwind label %33

23:                                               ; preds = %3
  %24 = load i32, ptr %4, align 8
  %25 = sext i32 %24 to i64
  %26 = load i32, ptr %6, align 4
  invoke void @_ZN5faiss9IndexFlatC1ElNS_10MetricTypeE(ptr noundef nonnull align 8 dereferenceable(72) %22, i64 noundef %25, i32 noundef %26)
          to label %27 unwind label %35

27:                                               ; preds = %23
  store ptr %22, ptr %15, align 8
  store i8 1, ptr %17, align 1
  %28 = load i64, ptr %.phi.trans.insert.i, align 8
  %29 = load ptr, ptr %22, align 8
  %30 = getelementptr inbounds i8, ptr %29, i64 24
  %31 = load ptr, ptr %30, align 8
  invoke void %31(ptr noundef nonnull align 8 dereferenceable(36) %22, i64 noundef %28, ptr noundef %2)
          to label %32 unwind label %33

32:                                               ; preds = %27
  ret void

33:                                               ; preds = %27, %3
  %34 = landingpad { ptr, i32 }
          cleanup
  br label %37

35:                                               ; preds = %23
  %36 = landingpad { ptr, i32 }
          cleanup
  tail call void @_ZdlPv(ptr noundef nonnull %22) #19
  br label %37

37:                                               ; preds = %35, %33
  %.pn = phi { ptr, i32 } [ %34, %33 ], [ %36, %35 ]
  tail call void @_ZN5faiss11IndexRefineD2Ev(ptr noundef nonnull align 8 dereferenceable(64) %0) #10
  resume { ptr, i32 } %.pn
}